; Function Attrs: mustprogress nounwind uwtable
define hidden void @_ZN10HeapShared20mark_native_pointersEP7oopDesc(ptr noundef %0) local_unnamed_addr #2 align 2 {
  %.not.i = icmp eq ptr %0, null
  br i1 %.not.i, label %_ZN15java_lang_Class11is_instanceEP7oopDesc.exit.thread, label %2

2:                                                ; preds = %1
  %3 = load i8, ptr @UseCompressedClassPointers, align 1
  %4 = trunc i8 %3 to i1
  %5 = getelementptr inbounds i8, ptr %0, i64 8
  br i1 %4, label %6, label %16

6:                                                ; preds = %2
  %7 = load i32, ptr %5, align 8
  %8 = load ptr, ptr @_ZN23CompressedKlassPointers5_baseE, align 8
  %9 = load i32, ptr @_ZN23CompressedKlassPointers6_shiftE, align 4
  %10 = ptrtoint ptr %8 to i64
  %11 = zext i32 %7 to i64
  %12 = zext nneg i32 %9 to i64
  %13 = shl i64 %11, %12
  %14 = add i64 %13, %10
  %15 = inttoptr i64 %14 to ptr
  br label %_ZN15java_lang_Class11is_instanceEP7oopDesc.exit

16:                                               ; preds = %2
  %17 = load ptr, ptr %5, align 8
  br label %_ZN15java_lang_Class11is_instanceEP7oopDesc.exit

_ZN15java_lang_Class11is_instanceEP7oopDesc.exit: ; preds = %6, %16
  %.0.i.i = phi ptr [ %15, %6 ], [ %17, %16 ]
  %18 = load ptr, ptr getelementptr inbounds (i8, ptr @_ZN9vmClasses8_klassesE, i64 16), align 8
  %19 = icmp eq ptr %.0.i.i, %18
  br i1 %19, label %20, label %_ZN15java_lang_Class11is_instanceEP7oopDesc.exit.thread

20:                                               ; preds = %_ZN15java_lang_Class11is_instanceEP7oopDesc.exit
  %21 = load i32, ptr @_ZN15java_lang_Class13_klass_offsetE, align 4
  tail call void @_ZN17ArchiveHeapWriter19mark_native_pointerEP7oopDesci(ptr noundef nonnull %0, i32 noundef %21) #20
  %22 = load i32, ptr @_ZN15java_lang_Class19_array_klass_offsetE, align 4
  tail call void @_ZN17ArchiveHeapWriter19mark_native_pointerEP7oopDesci(ptr noundef nonnull %0, i32 noundef %22) #20
  br label %_ZN15java_lang_Class11is_instanceEP7oopDesc.exit.thread

_ZN15java_lang_Class11is_instanceEP7oopDesc.exit.thread: ; preds = %1, %20, %_ZN15java_lang_Class11is_instanceEP7oopDesc.exit
  ret void
}